target datalayout = "e-m:e-p270:32:32-p271:32:32-p272:64:64-i64:64-i128:128-f80:128-n8:16:32:64-S128"
target triple = "x86_64-pc-linux-gnu"

%class.ThreadShadow = type <{ ptr, ptr, ptr, i32, [4 x i8] }>
%class.Array = type <{ i32, [1 x i8], [3 x i8] }>
%class.anon = type { i8 }

@_ZN12ConstantPoolC1EP5ArrayIhE = hidden unnamed_addr alias void (ptr, ptr), ptr @_ZN12ConstantPoolC2EP5ArrayIhE

; Function Attrs: mustprogress nounwind uwtable
define linkonce_odr hidden noundef i32 @_Z4MAX2IiET_S0_S0_(i32 noundef %0, i32 noundef %1) #1 comdat {
  %3 = alloca i32, align 4
  %4 = alloca i32, align 4
  store i32 %0, ptr %3, align 4
  store i32 %1, ptr %4, align 4
  %5 = load i32, ptr %3, align 4
  %6 = load i32, ptr %4, align 4
  %7 = icmp sgt i32 %5, %6
  br i1 %7, label %8, label %10

8:                                                ; preds = %2
  %9 = load i32, ptr %3, align 4
  br label %12

10:                                               ; preds = %2
  %11 = load i32, ptr %4, align 4
  br label %12

12:                                               ; preds = %10, %8
  %13 = phi i32 [ %9, %8 ], [ %11, %10 ]
  ret i32 %13
}

; Function Attrs: mustprogress nounwind uwtable
define linkonce_odr hidden noundef i64 @_Z10align_downImiTnNSt9enable_ifIXcvbsr3std11is_integralIT_EE5valueEiE4typeELi0EES1_S1_T0_(i64 noundef %0, i32 noundef %1) #1 comdat {
  %3 = alloca i64, align 8
  %4 = alloca i32, align 4
  %5 = alloca i64, align 8
  store i64 %0, ptr %3, align 8
  store i32 %1, ptr %4, align 4
  %6 = load i64, ptr %3, align 8
  %7 = load i32, ptr %4, align 4
  %8 = call noundef i32 @_ZL14alignment_maskIiTnNSt9enable_ifIXcvbsr3std11is_integralIT_EE5valueEiE4typeELi0EES1_S1_(i32 noundef %7)
  %9 = sext i32 %8 to i64
  %10 = xor i64 %9, -1
  %11 = and i64 %6, %10
  store i64 %11, ptr %5, align 8
  %12 = load i64, ptr %5, align 8
  ret i64 %12
}

; Function Attrs: mustprogress nounwind uwtable
define linkonce_odr hidden noundef i64 @_Z12checked_castImmET_T0_(i64 noundef %0) #1 comdat {
  %2 = alloca i64, align 8
  %3 = alloca i64, align 8
  store i64 %0, ptr %2, align 8
  %4 = load i64, ptr %2, align 8
  store i64 %4, ptr %3, align 8
  %5 = load i64, ptr %3, align 8
  ret i64 %5
}

; Function Attrs: mustprogress nounwind uwtable
define linkonce_odr hidden noundef i64 @_ZN5ArrayIhE11byte_sizeofEim(i32 noundef %0, i64 noundef %1) #1 comdat align 2 {
  %3 = alloca i32, align 4
  %4 = alloca i64, align 8
  store i32 %0, ptr %3, align 4
  store i64 %1, ptr %4, align 8
  %5 = load i32, ptr %3, align 4
  %6 = sub nsw i32 %5, 1
  %7 = call noundef i32 @_Z4MAX2IiET_S0_S0_(i32 noundef %6, i32 noundef 0)
  %8 = sext i32 %7 to i64
  %9 = load i64, ptr %4, align 8
  %10 = mul i64 %8, %9
  %11 = add i64 8, %10
  ret i64 %11
}

; Function Attrs: mustprogress nounwind uwtable
define linkonce_odr hidden noundef i64 @_ZZN5ArrayIhE20base_offset_in_bytesEvENKUlvE_clEv(ptr noundef nonnull align 1 dereferenceable(1) %0) #1 comdat align 2 {
  %2 = alloca ptr, align 8
  %3 = alloca [8 x i8], align 16
  %4 = alloca ptr, align 8
  %5 = alloca ptr, align 8
  store ptr %0, ptr %2, align 8
  %6 = getelementptr inbounds [8 x i8], ptr %3, i64 0, i64 0
  store ptr %6, ptr %4, align 8
  %7 = load ptr, ptr %4, align 8
  %8 = getelementptr inbounds %class.Array, ptr %7, i32 0, i32 1
  store ptr %8, ptr %5, align 8
  %9 = load ptr, ptr %5, align 8
  %10 = getelementptr inbounds [8 x i8], ptr %3, i64 0, i64 0
  %11 = ptrtoint ptr %9 to i64
  %12 = ptrtoint ptr %10 to i64
  %13 = sub i64 %11, %12
  ret i64 %13
}

; Function Attrs: mustprogress nounwind uwtable
define linkonce_odr hidden noundef i64 @_Z8align_upImiTnNSt9enable_ifIXcvbsr3std11is_integralIT_EE5valueEiE4typeELi0EES1_S1_T0_(i64 noundef %0, i32 noundef %1) #1 comdat {
  %3 = alloca i64, align 8
  %4 = alloca i32, align 4
  %5 = alloca i64, align 8
  store i64 %0, ptr %3, align 8
  store i32 %1, ptr %4, align 4
  %6 = load i64, ptr %3, align 8
  %7 = load i32, ptr %4, align 4
  %8 = call noundef i32 @_ZL14alignment_maskIiTnNSt9enable_ifIXcvbsr3std11is_integralIT_EE5valueEiE4typeELi0EES1_S1_(i32 noundef %7)
  %9 = sext i32 %8 to i64
  %10 = add i64 %6, %9
  %11 = call noundef i64 @_Z12checked_castImmET_T0_(i64 noundef %10)
  store i64 %11, ptr %5, align 8
  %12 = load i64, ptr %5, align 8
  %13 = load i32, ptr %4, align 4
  %14 = call noundef i64 @_Z10align_downImiTnNSt9enable_ifIXcvbsr3std11is_integralIT_EE5valueEiE4typeELi0EES1_S1_T0_(i64 noundef %12, i32 noundef %13)
  ret i64 %14
}

; Function Attrs: mustprogress nounwind uwtable
define linkonce_odr hidden noundef i64 @_ZN5ArrayIhE11byte_sizeofEi(i32 noundef %0) #1 comdat align 2 {
  %2 = alloca i32, align 4
  store i32 %0, ptr %2, align 4
  %3 = load i32, ptr %2, align 4
  %4 = call noundef i64 @_ZN5ArrayIhE11byte_sizeofEim(i32 noundef %3, i64 noundef 1)
  ret i64 %4
}

; Function Attrs: mustprogress nounwind uwtable
define linkonce_odr hidden noundef i32 @_Z10align_downIiiTnNSt9enable_ifIXcvbsr3std11is_integralIT_EE5valueEiE4typeELi0EES1_S1_T0_(i32 noundef %0, i32 noundef %1) #1 comdat {
  %3 = alloca i32, align 4
  %4 = alloca i32, align 4
  %5 = alloca i32, align 4
  store i32 %0, ptr %3, align 4
  store i32 %1, ptr %4, align 4
  %6 = load i32, ptr %3, align 4
  %7 = load i32, ptr %4, align 4
  %8 = call noundef i32 @_ZL14alignment_maskIiTnNSt9enable_ifIXcvbsr3std11is_integralIT_EE5valueEiE4typeELi0EES1_S1_(i32 noundef %7)
  %9 = xor i32 %8, -1
  %10 = and i32 %6, %9
  store i32 %10, ptr %5, align 4
  %11 = load i32, ptr %5, align 4
  ret i32 %11
}

; Function Attrs: mustprogress nounwind uwtable
define linkonce_odr hidden noundef i32 @_Z12checked_castIiiET_T0_(i32 noundef %0) #1 comdat {
  %2 = alloca i32, align 4
  %3 = alloca i32, align 4
  store i32 %0, ptr %2, align 4
  %4 = load i32, ptr %2, align 4
  store i32 %4, ptr %3, align 4
  %5 = load i32, ptr %3, align 4
  ret i32 %5
}

; Function Attrs: mustprogress nounwind uwtable
define internal noundef i32 @_ZL14alignment_maskIiTnNSt9enable_ifIXcvbsr3std11is_integralIT_EE5valueEiE4typeELi0EES1_S1_(i32 noundef %0) #1 {
  %2 = alloca i32, align 4
  store i32 %0, ptr %2, align 4
  %3 = load i32, ptr %2, align 4
  %4 = sub nsw i32 %3, 1
  ret i32 %4
}

; Function Attrs: mustprogress nounwind uwtable
define linkonce_odr hidden noundef i32 @_ZN5ArrayIhE20base_offset_in_bytesEv() #1 comdat align 2 {
  %1 = alloca %class.anon, align 1
  %2 = call noundef i64 @_ZZN5ArrayIhE20base_offset_in_bytesEvENKUlvE_clEv(ptr noundef nonnull align 1 dereferenceable(1) %1)
  %3 = trunc i64 %2 to i32
  ret i32 %3
}

; Function Attrs: mustprogress nounwind uwtable
define linkonce_odr hidden noundef i32 @_ZN12MetaspaceObj10array_typeEm(i64 noundef %0) #1 comdat align 2 {
  %2 = alloca i32, align 4
  %3 = alloca i64, align 8
  store i64 %0, ptr %3, align 8
  %4 = load i64, ptr %3, align 8
  switch i64 %4, label %9 [
    i64 1, label %5
    i64 2, label %6
    i64 4, label %7
    i64 8, label %8
  ]

5:                                                ; preds = %1
  store i32 2, ptr %2, align 4
  br label %10

6:                                                ; preds = %1
  store i32 3, ptr %2, align 4
  br label %10

7:                                                ; preds = %1
  store i32 4, ptr %2, align 4
  br label %10

8:                                                ; preds = %1
  store i32 5, ptr %2, align 4
  br label %10

9:                                                ; preds = %1
  store i32 6, ptr %2, align 4
  br label %10

10:                                               ; preds = %9, %8, %7, %6, %5
  %11 = load i32, ptr %2, align 4
  ret i32 %11
}

; Function Attrs: mustprogress nounwind uwtable
define linkonce_odr hidden noundef i32 @_ZN5ArrayIhE4sizeEi(i32 noundef %0) #1 comdat align 2 {
  %2 = alloca i32, align 4
  %3 = alloca i64, align 8
  %4 = alloca i64, align 8
  store i32 %0, ptr %2, align 4
  %5 = load i32, ptr %2, align 4
  %6 = call noundef i64 @_ZN5ArrayIhE11byte_sizeofEi(i32 noundef %5)
  %7 = call noundef i64 @_Z8align_upImiTnNSt9enable_ifIXcvbsr3std11is_integralIT_EE5valueEiE4typeELi0EES1_S1_T0_(i64 noundef %6, i32 noundef 8)
  store i64 %7, ptr %3, align 8
  %8 = load i64, ptr %3, align 8
  %9 = udiv i64 %8, 8
  store i64 %9, ptr %4, align 8
  %10 = load i64, ptr %4, align 8
  %11 = trunc i64 %10 to i32
  ret i32 %11
}

; Function Attrs: mustprogress nounwind uwtable
define linkonce_odr hidden noundef i32 @_Z8align_upIiiTnNSt9enable_ifIXcvbsr3std11is_integralIT_EE5valueEiE4typeELi0EES1_S1_T0_(i32 noundef %0, i32 noundef %1) #1 comdat {
  %3 = alloca i32, align 4
  %4 = alloca i32, align 4
  %5 = alloca i32, align 4
  store i32 %0, ptr %3, align 4
  store i32 %1, ptr %4, align 4
  %6 = load i32, ptr %3, align 4
  %7 = load i32, ptr %4, align 4
  %8 = call noundef i32 @_ZL14alignment_maskIiTnNSt9enable_ifIXcvbsr3std11is_integralIT_EE5valueEiE4typeELi0EES1_S1_(i32 noundef %7)
  %9 = add nsw i32 %6, %8
  %10 = call noundef i32 @_Z12checked_castIiiET_T0_(i32 noundef %9)
  store i32 %10, ptr %5, align 4
  %11 = load i32, ptr %5, align 4
  %12 = load i32, ptr %4, align 4
  %13 = call noundef i32 @_Z10align_downIiiTnNSt9enable_ifIXcvbsr3std11is_integralIT_EE5valueEiE4typeELi0EES1_S1_T0_(i32 noundef %11, i32 noundef %12)
  ret i32 %13
}

; Function Attrs: mustprogress nounwind uwtable
define linkonce_odr hidden noundef ptr @_ZN5ArrayIhE4dataEv(ptr noundef nonnull align 4 dereferenceable(5) %0) #1 comdat align 2 {
  %2 = alloca ptr, align 8
  store ptr %0, ptr %2, align 8
  %3 = load ptr, ptr %2, align 8
  %4 = call noundef i32 @_ZN5ArrayIhE20base_offset_in_bytesEv()
  %5 = sext i32 %4 to i64
  %6 = getelementptr inbounds i8, ptr %3, i64 %5
  ret ptr %6
}

; Function Attrs: mustprogress nounwind uwtable
define linkonce_odr hidden void @_ZN5ArrayIhEC2Ei(ptr noundef nonnull align 4 dereferenceable(5) %0, i32 noundef %1) unnamed_addr #1 comdat align 2 {
  %3 = alloca ptr, align 8
  %4 = alloca i32, align 4
  store ptr %0, ptr %3, align 8
  store i32 %1, ptr %4, align 4
  %5 = load ptr, ptr %3, align 8
  %6 = getelementptr inbounds %class.Array, ptr %5, i32 0, i32 0
  %7 = load i32, ptr %4, align 4
  store i32 %7, ptr %6, align 4
  ret void
}

; Function Attrs: mustprogress nounwind uwtable
define linkonce_odr hidden noundef ptr @_ZN5ArrayIhEnwEmP15ClassLoaderDataiP10JavaThread(i64 noundef %0, ptr noundef %1, i32 noundef %2, ptr noundef %3) #1 comdat align 2 {
  %5 = alloca i64, align 8
  %6 = alloca ptr, align 8
  %7 = alloca i32, align 4
  %8 = alloca ptr, align 8
  %9 = alloca i64, align 8
  store i64 %0, ptr %5, align 8
  store ptr %1, ptr %6, align 8
  store i32 %2, ptr %7, align 4
  store ptr %3, ptr %8, align 8
  %10 = load i32, ptr %7, align 4
  %11 = call noundef i32 @_ZN5ArrayIhE4sizeEi(i32 noundef %10)
  %12 = sext i32 %11 to i64
  store i64 %12, ptr %9, align 8
  %13 = load ptr, ptr %6, align 8
  %14 = load i64, ptr %9, align 8
  %15 = call noundef i32 @_ZN12MetaspaceObj10array_typeEm(i64 noundef 1)
  %16 = load ptr, ptr %8, align 8
  %17 = call noundef ptr @_ZN9Metaspace8allocateEP15ClassLoaderDatamN12MetaspaceObj4TypeEP10JavaThread(ptr noundef %13, i64 noundef %14, i32 noundef %15, ptr noundef %16)
  ret ptr %17
}

; Function Attrs: mustprogress nounwind uwtable
define linkonce_odr hidden noundef i32 @_Z19align_metadata_sizeIiET_S0_(i32 noundef %0) #1 comdat {
  %2 = alloca i32, align 4
  store i32 %0, ptr %2, align 4
  %3 = load i32, ptr %2, align 4
  %4 = call noundef i32 @_Z8align_upIiiTnNSt9enable_ifIXcvbsr3std11is_integralIT_EE5valueEiE4typeELi0EES1_S1_T0_(i32 noundef %3, i32 noundef 1)
  ret i32 %4
}

; Function Attrs: mustprogress nounwind uwtable
define linkonce_odr hidden noundef i32 @_ZN12ConstantPool11header_sizeEv() #1 comdat align 2 {
  %1 = call noundef i32 @_Z8align_upIiiTnNSt9enable_ifIXcvbsr3std11is_integralIT_EE5valueEiE4typeELi0EES1_S1_T0_(i32 noundef 72, i32 noundef 8)
  %2 = sdiv i32 %1, 8
  ret i32 %2
}

; Function Attrs: mustprogress nounwind uwtable
define linkonce_odr hidden void @_ZN5ArrayIhE6at_putEiRKh(ptr noundef nonnull align 4 dereferenceable(5) %0, i32 noundef %1, ptr noundef nonnull align 1 dereferenceable(1) %2) #1 comdat align 2 {
  %4 = alloca ptr, align 8
  %5 = alloca i32, align 4
  %6 = alloca ptr, align 8
  store ptr %0, ptr %4, align 8
  store i32 %1, ptr %5, align 4
  store ptr %2, ptr %6, align 8
  %7 = load ptr, ptr %4, align 8
  %8 = load ptr, ptr %6, align 8
  %9 = load i8, ptr %8, align 1
  %10 = call noundef ptr @_ZN5ArrayIhE4dataEv(ptr noundef nonnull align 4 dereferenceable(5) %7)
  %11 = load i32, ptr %5, align 4
  %12 = sext i32 %11 to i64
  %13 = getelementptr inbounds i8, ptr %10, i64 %12
  store i8 %9, ptr %13, align 1
  ret void
}

; Function Attrs: mustprogress nounwind uwtable
define linkonce_odr hidden noundef ptr @_ZN15MetadataFactory9new_arrayIhEEP5ArrayIT_EP15ClassLoaderDataiP10JavaThread(ptr noundef %0, i32 noundef %1, ptr noundef %2) #1 comdat align 2 {
  %4 = alloca ptr, align 8
  %5 = alloca i32, align 4
  %6 = alloca ptr, align 8
  store ptr %0, ptr %4, align 8
  store i32 %1, ptr %5, align 4
  store ptr %2, ptr %6, align 8
  %7 = load ptr, ptr %4, align 8
  %8 = load i32, ptr %5, align 4
  %9 = load ptr, ptr %6, align 8
  %10 = call noundef ptr @_ZN5ArrayIhEnwEmP15ClassLoaderDataiP10JavaThread(i64 noundef 8, ptr noundef %7, i32 noundef %8, ptr noundef %9) #10
  %11 = icmp eq ptr %10, null
  br i1 %11, label %14, label %12

12:                                               ; preds = %3
  %13 = load i32, ptr %5, align 4
  call void @_ZN5ArrayIhEC2Ei(ptr noundef nonnull align 4 dereferenceable(5) %10, i32 noundef %13)
  br label %14

14:                                               ; preds = %12, %3
  %15 = phi ptr [ %10, %12 ], [ null, %3 ]
  ret ptr %15
}

; Function Attrs: mustprogress nounwind uwtable
define linkonce_odr hidden noundef i32 @_ZN12ConstantPool4sizeEi(i32 noundef %0) #1 comdat align 2 {
  %2 = alloca i32, align 4
  store i32 %0, ptr %2, align 4
  %3 = call noundef i32 @_ZN12ConstantPool11header_sizeEv()
  %4 = load i32, ptr %2, align 4
  %5 = add nsw i32 %3, %4
  %6 = call noundef i32 @_Z19align_metadata_sizeIiET_S0_(i32 noundef %5)
  ret i32 %6
}

; Function Attrs: mustprogress nounwind uwtable
define linkonce_odr hidden noundef zeroext i1 @_ZNK12ThreadShadow21has_pending_exceptionEv(ptr noundef nonnull align 8 dereferenceable(28) %0) #1 comdat align 2 {
  %2 = alloca ptr, align 8
  store ptr %0, ptr %2, align 8
  %3 = load ptr, ptr %2, align 8
  %4 = getelementptr inbounds %class.ThreadShadow, ptr %3, i32 0, i32 1
  %5 = load ptr, ptr %4, align 8
  %6 = icmp ne ptr %5, null
  ret i1 %6
}

; Function Attrs: mustprogress nounwind uwtable
define linkonce_odr hidden noundef ptr @_ZN15MetadataFactory9new_arrayIhEEP5ArrayIT_EP15ClassLoaderDataiS2_P10JavaThread(ptr noundef %0, i32 noundef %1, i8 noundef zeroext %2, ptr noundef %3) #1 comdat align 2 {
  %5 = alloca ptr, align 8
  %6 = alloca ptr, align 8
  %7 = alloca i32, align 4
  %8 = alloca i8, align 1
  %9 = alloca ptr, align 8
  %10 = alloca ptr, align 8
  %11 = alloca i32, align 4
  store ptr %0, ptr %6, align 8
  store i32 %1, ptr %7, align 4
  store i8 %2, ptr %8, align 1
  store ptr %3, ptr %9, align 8
  %12 = load ptr, ptr %6, align 8
  %13 = load i32, ptr %7, align 4
  %14 = load ptr, ptr %9, align 8
  %15 = call noundef ptr @_ZN15MetadataFactory9new_arrayIhEEP5ArrayIT_EP15ClassLoaderDataiP10JavaThread(ptr noundef %12, i32 noundef %13, ptr noundef %14)
  store ptr %15, ptr %10, align 8
  %16 = load ptr, ptr %9, align 8
  %17 = call noundef zeroext i1 @_ZNK12ThreadShadow21has_pending_exceptionEv(ptr noundef nonnull align 8 dereferenceable(28) %16)
  br i1 %17, label %18, label %19

18:                                               ; preds = %4
  store ptr null, ptr %5, align 8
  br label %32

19:                                               ; preds = %4
  store i32 0, ptr %11, align 4
  br label %20

20:                                               ; preds = %27, %19
  %21 = load i32, ptr %11, align 4
  %22 = load i32, ptr %7, align 4
  %23 = icmp slt i32 %21, %22
  br i1 %23, label %24, label %30

24:                                               ; preds = %20
  %25 = load ptr, ptr %10, align 8
  %26 = load i32, ptr %11, align 4
  call void @_ZN5ArrayIhE6at_putEiRKh(ptr noundef nonnull align 4 dereferenceable(5) %25, i32 noundef %26, ptr noundef nonnull align 1 dereferenceable(1) %8)
  br label %27

27:                                               ; preds = %24
  %28 = load i32, ptr %11, align 4
  %29 = add nsw i32 %28, 1
  store i32 %29, ptr %11, align 4
  br label %20, !llvm.loop !6

30:                                               ; preds = %20
  %31 = load ptr, ptr %10, align 8
  store ptr %31, ptr %5, align 8
  br label %32

32:                                               ; preds = %30, %18
  %33 = load ptr, ptr %5, align 8
  ret ptr %33
}

; Function Attrs: mustprogress nounwind uwtable
define hidden noundef ptr @_ZN12ConstantPool8allocateEP15ClassLoaderDataiP10JavaThread(ptr noundef %0, i32 noundef %1, ptr noundef %2) #1 align 2 {
  %4 = alloca ptr, align 8
  %5 = alloca ptr, align 8
  %6 = alloca i32, align 4
  %7 = alloca ptr, align 8
  %8 = alloca ptr, align 8
  %9 = alloca i32, align 4
  store ptr %0, ptr %5, align 8
  store i32 %1, ptr %6, align 4
  store ptr %2, ptr %7, align 8
  %10 = load ptr, ptr %5, align 8
  %11 = load i32, ptr %6, align 4
  %12 = load ptr, ptr %7, align 8
  %13 = call noundef ptr @_ZN15MetadataFactory9new_arrayIhEEP5ArrayIT_EP15ClassLoaderDataiS2_P10JavaThread(ptr noundef %10, i32 noundef %11, i8 noundef zeroext 0, ptr noundef %12)
  store ptr %13, ptr %8, align 8
  %14 = load ptr, ptr %7, align 8
  %15 = call noundef zeroext i1 @_ZNK12ThreadShadow21has_pending_exceptionEv(ptr noundef nonnull align 8 dereferenceable(28) %14)
  br i1 %15, label %16, label %17

16:                                               ; preds = %3
  store ptr null, ptr %4, align 8
  br label %30

17:                                               ; preds = %3
  %18 = load i32, ptr %6, align 4
  %19 = call noundef i32 @_ZN12ConstantPool4sizeEi(i32 noundef %18)
  store i32 %19, ptr %9, align 4
  %20 = load ptr, ptr %5, align 8
  %21 = load i32, ptr %9, align 4
  %22 = sext i32 %21 to i64
  %23 = load ptr, ptr %7, align 8
  %24 = call noundef ptr @_ZN12MetaspaceObjnwEmP15ClassLoaderDatamNS_4TypeEP10JavaThread(i64 noundef 72, ptr noundef %20, i64 noundef %22, i32 noundef 10, ptr noundef %23) #10
  %25 = icmp eq ptr %24, null
  br i1 %25, label %28, label %26

26:                                               ; preds = %17
  %27 = load ptr, ptr %8, align 8
  call void @_ZN12ConstantPoolC1EP5ArrayIhE(ptr noundef nonnull align 8 dereferenceable(68) %24, ptr noundef %27)
  br label %28

28:                                               ; preds = %26, %17
  %29 = phi ptr [ %24, %26 ], [ null, %17 ]
  store ptr %29, ptr %4, align 8
  br label %30

30:                                               ; preds = %28, %16
  %31 = load ptr, ptr %4, align 8
  ret ptr %31
}