; Function Attrs: mustprogress nounwind uwtable
define hidden noundef ptr @_ZN12ConstantPool8allocateEP15ClassLoaderDataiP10JavaThread(ptr noundef %0, i32 noundef %1, ptr noundef %2) local_unnamed_addr #0 align 2 {
  %4 = tail call i32 @llvm.smax.i32(i32 %1, i32 1)
  %narrow.i.i.i.i = add nuw i32 %4, 14
  %5 = lshr i32 %narrow.i.i.i.i, 3
  %6 = zext nneg i32 %5 to i64
  %7 = tail call noundef ptr @_ZN9Metaspace8allocateEP15ClassLoaderDatamN12MetaspaceObj4TypeEP10JavaThread(ptr noundef %0, i64 noundef %6, i32 noundef 2, ptr noundef %2) #17
  %8 = icmp eq ptr %7, null
  br i1 %8, label %_ZN15MetadataFactory9new_arrayIhEEP5ArrayIT_EP15ClassLoaderDataiP10JavaThread.exit.i, label %9

9:                                                ; preds = %3
  store i32 %1, ptr %7, align 4
  br label %_ZN15MetadataFactory9new_arrayIhEEP5ArrayIT_EP15ClassLoaderDataiP10JavaThread.exit.i

_ZN15MetadataFactory9new_arrayIhEEP5ArrayIT_EP15ClassLoaderDataiP10JavaThread.exit.i: ; preds = %9, %3
  %10 = getelementptr inbounds i8, ptr %2, i64 8
  %11 = load ptr, ptr %10, align 8
  %.not.i = icmp eq ptr %11, null
  br i1 %.not.i, label %.preheader.i, label %_ZN15MetadataFactory9new_arrayIhEEP5ArrayIT_EP15ClassLoaderDataiS2_P10JavaThread.exit.thread

.preheader.i:                                     ; preds = %_ZN15MetadataFactory9new_arrayIhEEP5ArrayIT_EP15ClassLoaderDataiP10JavaThread.exit.i
  %12 = icmp sgt i32 %1, 0
  br i1 %12, label %_ZN15MetadataFactory9new_arrayIhEEP5ArrayIT_EP15ClassLoaderDataiS2_P10JavaThread.exit, label %_ZN15MetadataFactory9new_arrayIhEEP5ArrayIT_EP15ClassLoaderDataiS2_P10JavaThread.exit.thread11

_ZN15MetadataFactory9new_arrayIhEEP5ArrayIT_EP15ClassLoaderDataiS2_P10JavaThread.exit: ; preds = %.preheader.i
  %13 = getelementptr inbounds i8, ptr %7, i64 4
  %14 = zext nneg i32 %1 to i64
  tail call void @llvm.memset.p0.i64(ptr nonnull align 1 %13, i8 0, i64 %14, i1 false)
  %.pr = load ptr, ptr %10, align 8
  %.not = icmp eq ptr %.pr, null
  br i1 %.not, label %_ZN15MetadataFactory9new_arrayIhEEP5ArrayIT_EP15ClassLoaderDataiS2_P10JavaThread.exit.thread11, label %_ZN15MetadataFactory9new_arrayIhEEP5ArrayIT_EP15ClassLoaderDataiS2_P10JavaThread.exit.thread

_ZN15MetadataFactory9new_arrayIhEEP5ArrayIT_EP15ClassLoaderDataiS2_P10JavaThread.exit.thread11: ; preds = %.preheader.i, %_ZN15MetadataFactory9new_arrayIhEEP5ArrayIT_EP15ClassLoaderDataiS2_P10JavaThread.exit
  %15 = add nsw i32 %1, 9
  %16 = sext i32 %15 to i64
  %17 = tail call noundef ptr @_ZN12MetaspaceObjnwEmP15ClassLoaderDatamNS_4TypeEP10JavaThread(i64 noundef 72, ptr noundef %0, i64 noundef %16, i32 noundef 10, ptr noundef nonnull %2) #17
  %18 = icmp eq ptr %17, null
  br i1 %18, label %_ZN15MetadataFactory9new_arrayIhEEP5ArrayIT_EP15ClassLoaderDataiS2_P10JavaThread.exit.thread, label %19

19:                                               ; preds = %_ZN15MetadataFactory9new_arrayIhEEP5ArrayIT_EP15ClassLoaderDataiS2_P10JavaThread.exit.thread11
  store ptr getelementptr inbounds inrange(-16, 112) (i8, ptr @_ZTV12ConstantPool, i64 16), ptr %17, align 8
  %20 = getelementptr inbounds i8, ptr %17, i64 8
  store ptr %7, ptr %20, align 8
  %21 = getelementptr inbounds i8, ptr %17, i64 60
  %22 = load i32, ptr %7, align 4
  store i32 %22, ptr %21, align 4
  br label %_ZN15MetadataFactory9new_arrayIhEEP5ArrayIT_EP15ClassLoaderDataiS2_P10JavaThread.exit.thread

_ZN15MetadataFactory9new_arrayIhEEP5ArrayIT_EP15ClassLoaderDataiS2_P10JavaThread.exit.thread: ; preds = %_ZN15MetadataFactory9new_arrayIhEEP5ArrayIT_EP15ClassLoaderDataiP10JavaThread.exit.i, %_ZN15MetadataFactory9new_arrayIhEEP5ArrayIT_EP15ClassLoaderDataiS2_P10JavaThread.exit.thread11, %19, %_ZN15MetadataFactory9new_arrayIhEEP5ArrayIT_EP15ClassLoaderDataiS2_P10JavaThread.exit
  %.0 = phi ptr [ null, %_ZN15MetadataFactory9new_arrayIhEEP5ArrayIT_EP15ClassLoaderDataiS2_P10JavaThread.exit ], [ %17, %19 ], [ null, %_ZN15MetadataFactory9new_arrayIhEEP5ArrayIT_EP15ClassLoaderDataiS2_P10JavaThread.exit.thread11 ], [ null, %_ZN15MetadataFactory9new_arrayIhEEP5ArrayIT_EP15ClassLoaderDataiP10JavaThread.exit.i ]
  ret ptr %.0
}